target datalayout = "e-m:e-p270:32:32-p271:32:32-p272:64:64-i64:64-i128:128-f80:128-n8:16:32:64-S128"
target triple = "x86_64-pc-linux-gnu"

%"class.std::_Function_base" = type { %"union.std::_Any_data", ptr }
%"union.std::_Any_data" = type { %"union.std::_Nocopy_types" }
%"union.std::_Nocopy_types" = type { { i64, i64 } }
%"class.std::__cxx11::basic_string" = type { %"struct.std::__cxx11::basic_string<char>::_Alloc_hider", i64, %union.anon.4 }
%"struct.std::__cxx11::basic_string<char>::_Alloc_hider" = type { ptr }
%union.anon.4 = type { i64, [8 x i8] }
%"struct.cv::GKernel" = type { %"class.std::__cxx11::basic_string", %"class.std::__cxx11::basic_string", %"class.std::function.18", %"class.std::vector.21", %"class.std::vector.26", %"class.std::vector.31", %"class.std::vector.26" }
%"class.std::function.18" = type { %"class.std::_Function_base", ptr }
%"class.std::vector.21" = type { %"struct.std::_Vector_base.22" }
%"struct.std::_Vector_base.22" = type { %"struct.std::_Vector_base<cv::GShape, std::allocator<cv::GShape>>::_Vector_impl" }
%"struct.std::_Vector_base<cv::GShape, std::allocator<cv::GShape>>::_Vector_impl" = type { %"struct.std::_Vector_base<cv::GShape, std::allocator<cv::GShape>>::_Vector_impl_data" }
%"struct.std::_Vector_base<cv::GShape, std::allocator<cv::GShape>>::_Vector_impl_data" = type { ptr, ptr, ptr }
%"class.std::vector.31" = type { %"struct.std::_Vector_base.32" }
%"struct.std::_Vector_base.32" = type { %"struct.std::_Vector_base<cv::util::variant<cv::util::monostate, std::function<void (cv::detail::VectorRef &)>, std::function<void (cv::detail::OpaqueRef &)>>, std::allocator<cv::util::variant<cv::util::monostate, std::function<void (cv::detail::VectorRef &)>, std::function<void (cv::detail::OpaqueRef &)>>>>::_Vector_impl" }
%"struct.std::_Vector_base<cv::util::variant<cv::util::monostate, std::function<void (cv::detail::VectorRef &)>, std::function<void (cv::detail::OpaqueRef &)>>, std::allocator<cv::util::variant<cv::util::monostate, std::function<void (cv::detail::VectorRef &)>, std::function<void (cv::detail::OpaqueRef &)>>>>::_Vector_impl" = type { %"struct.std::_Vector_base<cv::util::variant<cv::util::monostate, std::function<void (cv::detail::VectorRef &)>, std::function<void (cv::detail::OpaqueRef &)>>, std::allocator<cv::util::variant<cv::util::monostate, std::function<void (cv::detail::VectorRef &)>, std::function<void (cv::detail::OpaqueRef &)>>>>::_Vector_impl_data" }
%"struct.std::_Vector_base<cv::util::variant<cv::util::monostate, std::function<void (cv::detail::VectorRef &)>, std::function<void (cv::detail::OpaqueRef &)>>, std::allocator<cv::util::variant<cv::util::monostate, std::function<void (cv::detail::VectorRef &)>, std::function<void (cv::detail::OpaqueRef &)>>>>::_Vector_impl_data" = type { ptr, ptr, ptr }
%"class.std::vector.26" = type { %"struct.std::_Vector_base.27" }
%"struct.std::_Vector_base.27" = type { %"struct.std::_Vector_base<cv::detail::OpaqueKind, std::allocator<cv::detail::OpaqueKind>>::_Vector_impl" }
%"struct.std::_Vector_base<cv::detail::OpaqueKind, std::allocator<cv::detail::OpaqueKind>>::_Vector_impl" = type { %"struct.std::_Vector_base<cv::detail::OpaqueKind, std::allocator<cv::detail::OpaqueKind>>::_Vector_impl_data" }
%"struct.std::_Vector_base<cv::detail::OpaqueKind, std::allocator<cv::detail::OpaqueKind>>::_Vector_impl_data" = type { ptr, ptr, ptr }
%"class.__gnu_cxx::__normal_iterator.245" = type { ptr }

; Function Attrs: mustprogress uwtable
define internal noundef nonnull align 8 dereferenceable(8) ptr @_ZN2cv4gapi4s11n12_GLOBAL__N_18put_enumINS_6GShapeEEERNS1_8IOStreamES6_T_(ptr noundef nonnull align 8 dereferenceable(8) %0, i32 noundef %1) #4 {
  %3 = alloca ptr, align 8
  %4 = alloca i32, align 4
  store ptr %0, ptr %3, align 8, !tbaa !3
  store i32 %1, ptr %4, align 4, !tbaa !180
  %5 = load ptr, ptr %3, align 8, !tbaa !3
  %6 = load i32, ptr %4, align 4, !tbaa !180
  %7 = load ptr, ptr %5, align 8, !tbaa !13
  %8 = getelementptr inbounds ptr, ptr %7, i64 7
  %9 = load ptr, ptr %8, align 8
  %10 = call noundef nonnull align 8 dereferenceable(8) ptr %9(ptr noundef nonnull align 8 dereferenceable(8) %5, i32 noundef %6)
  ret ptr %10
}

; Function Attrs: mustprogress nounwind uwtable
define linkonce_odr hidden noundef nonnull align 8 dereferenceable(8) ptr @_ZNK9__gnu_cxx17__normal_iteratorIPKN2cv6GShapeESt6vectorIS2_SaIS2_EEE4baseEv(ptr noundef nonnull align 8 dereferenceable(8) %0) #9 comdat align 2 {
  %2 = alloca ptr, align 8
  store ptr %0, ptr %2, align 8, !tbaa !750
  %3 = load ptr, ptr %2, align 8
  %4 = getelementptr inbounds nuw %"class.__gnu_cxx::__normal_iterator.245", ptr %3, i32 0, i32 0
  ret ptr %4
}

; Function Attrs: mustprogress nounwind uwtable
define linkonce_odr hidden void @_ZN9__gnu_cxx17__normal_iteratorIPKN2cv6GShapeESt6vectorIS2_SaIS2_EEEC2ERKS4_(ptr noundef nonnull align 8 dereferenceable(8) %0, ptr noundef nonnull align 8 dereferenceable(8) %1) unnamed_addr #9 comdat align 2 {
  %3 = alloca ptr, align 8
  %4 = alloca ptr, align 8
  store ptr %0, ptr %3, align 8, !tbaa !750
  store ptr %1, ptr %4, align 8, !tbaa !471
  %5 = load ptr, ptr %3, align 8
  %6 = getelementptr inbounds nuw %"class.__gnu_cxx::__normal_iterator.245", ptr %5, i32 0, i32 0
  %7 = load ptr, ptr %4, align 8, !tbaa !471
  %8 = load ptr, ptr %7, align 8, !tbaa !170
  store ptr %8, ptr %6, align 8, !tbaa !752
  ret void
}

; Function Attrs: mustprogress nounwind uwtable
define linkonce_odr hidden noundef nonnull align 8 dereferenceable(8) ptr @_ZN9__gnu_cxx17__normal_iteratorIPKN2cv6GShapeESt6vectorIS2_SaIS2_EEEppEv(ptr noundef nonnull align 8 dereferenceable(8) %0) #9 comdat align 2 {
  %2 = alloca ptr, align 8
  store ptr %0, ptr %2, align 8, !tbaa !750
  %3 = load ptr, ptr %2, align 8
  %4 = getelementptr inbounds nuw %"class.__gnu_cxx::__normal_iterator.245", ptr %3, i32 0, i32 0
  %5 = load ptr, ptr %4, align 8, !tbaa !752
  %6 = getelementptr inbounds nuw i32, ptr %5, i32 1
  store ptr %6, ptr %4, align 8, !tbaa !752
  ret ptr %3
}

; Function Attrs: mustprogress uwtable
define noundef nonnull align 8 dereferenceable(8) ptr @_ZN2cv4gapi4s11nlsERNS1_8IOStreamENS_6GShapeE(ptr noundef nonnull align 8 dereferenceable(8) %0, i32 noundef %1) #4 {
  %3 = alloca ptr, align 8
  %4 = alloca i32, align 4
  store ptr %0, ptr %3, align 8, !tbaa !3
  store i32 %1, ptr %4, align 4, !tbaa !180
  %5 = load ptr, ptr %3, align 8, !tbaa !3
  %6 = load i32, ptr %4, align 4, !tbaa !180
  %7 = call noundef nonnull align 8 dereferenceable(8) ptr @_ZN2cv4gapi4s11n12_GLOBAL__N_18put_enumINS_6GShapeEEERNS1_8IOStreamES6_T_(ptr noundef nonnull align 8 dereferenceable(8) %5, i32 noundef %6)
  ret ptr %7
}

; Function Attrs: mustprogress nounwind uwtable
define linkonce_odr hidden noundef nonnull align 4 dereferenceable(4) ptr @_ZNK9__gnu_cxx17__normal_iteratorIPKN2cv6GShapeESt6vectorIS2_SaIS2_EEEdeEv(ptr noundef nonnull align 8 dereferenceable(8) %0) #9 comdat align 2 {
  %2 = alloca ptr, align 8
  store ptr %0, ptr %2, align 8, !tbaa !750
  %3 = load ptr, ptr %2, align 8
  %4 = getelementptr inbounds nuw %"class.__gnu_cxx::__normal_iterator.245", ptr %3, i32 0, i32 0
  %5 = load ptr, ptr %4, align 8, !tbaa !752
  ret ptr %5
}

; Function Attrs: inlinehint mustprogress nounwind uwtable
define linkonce_odr hidden noundef zeroext i1 @_ZN9__gnu_cxxneIPKN2cv6GShapeESt6vectorIS2_SaIS2_EEEEbRKNS_17__normal_iteratorIT_T0_EESD_(ptr noundef nonnull align 8 dereferenceable(8) %0, ptr noundef nonnull align 8 dereferenceable(8) %1) #7 comdat {
  %3 = alloca ptr, align 8
  %4 = alloca ptr, align 8
  store ptr %0, ptr %3, align 8, !tbaa !750
  store ptr %1, ptr %4, align 8, !tbaa !750
  %5 = load ptr, ptr %3, align 8, !tbaa !750
  %6 = call noundef nonnull align 8 dereferenceable(8) ptr @_ZNK9__gnu_cxx17__normal_iteratorIPKN2cv6GShapeESt6vectorIS2_SaIS2_EEE4baseEv(ptr noundef nonnull align 8 dereferenceable(8) %5) #3
  %7 = load ptr, ptr %6, align 8, !tbaa !170
  %8 = load ptr, ptr %4, align 8, !tbaa !750
  %9 = call noundef nonnull align 8 dereferenceable(8) ptr @_ZNK9__gnu_cxx17__normal_iteratorIPKN2cv6GShapeESt6vectorIS2_SaIS2_EEE4baseEv(ptr noundef nonnull align 8 dereferenceable(8) %8) #3
  %10 = load ptr, ptr %9, align 8, !tbaa !170
  %11 = icmp ne ptr %7, %10
  ret i1 %11
}

; Function Attrs: mustprogress nounwind uwtable
define linkonce_odr hidden ptr @_ZNKSt6vectorIN2cv6GShapeESaIS1_EE3endEv(ptr noundef nonnull align 8 dereferenceable(24) %0) #9 comdat align 2 {
  %2 = alloca %"class.__gnu_cxx::__normal_iterator.245", align 8
  %3 = alloca ptr, align 8
  store ptr %0, ptr %3, align 8, !tbaa !216
  %4 = load ptr, ptr %3, align 8
  %5 = getelementptr inbounds nuw %"struct.std::_Vector_base.22", ptr %4, i32 0, i32 0
  %6 = getelementptr inbounds nuw %"struct.std::_Vector_base<cv::GShape, std::allocator<cv::GShape>>::_Vector_impl_data", ptr %5, i32 0, i32 1
  call void @_ZN9__gnu_cxx17__normal_iteratorIPKN2cv6GShapeESt6vectorIS2_SaIS2_EEEC2ERKS4_(ptr noundef nonnull align 8 dereferenceable(8) %2, ptr noundef nonnull align 8 dereferenceable(8) %6) #3
  %7 = getelementptr inbounds nuw %"class.__gnu_cxx::__normal_iterator.245", ptr %2, i32 0, i32 0
  %8 = load ptr, ptr %7, align 8
  ret ptr %8
}

; Function Attrs: mustprogress nounwind uwtable
define linkonce_odr hidden ptr @_ZNKSt6vectorIN2cv6GShapeESaIS1_EE5beginEv(ptr noundef nonnull align 8 dereferenceable(24) %0) #9 comdat align 2 {
  %2 = alloca %"class.__gnu_cxx::__normal_iterator.245", align 8
  %3 = alloca ptr, align 8
  store ptr %0, ptr %3, align 8, !tbaa !216
  %4 = load ptr, ptr %3, align 8
  %5 = getelementptr inbounds nuw %"struct.std::_Vector_base.22", ptr %4, i32 0, i32 0
  %6 = getelementptr inbounds nuw %"struct.std::_Vector_base<cv::GShape, std::allocator<cv::GShape>>::_Vector_impl_data", ptr %5, i32 0, i32 0
  call void @_ZN9__gnu_cxx17__normal_iteratorIPKN2cv6GShapeESt6vectorIS2_SaIS2_EEEC2ERKS4_(ptr noundef nonnull align 8 dereferenceable(8) %2, ptr noundef nonnull align 8 dereferenceable(8) %6) #3
  %7 = getelementptr inbounds nuw %"class.__gnu_cxx::__normal_iterator.245", ptr %2, i32 0, i32 0
  %8 = load ptr, ptr %7, align 8
  ret ptr %8
}

; Function Attrs: mustprogress nounwind uwtable
define linkonce_odr hidden noundef i64 @_ZNKSt6vectorIN2cv6GShapeESaIS1_EE4sizeEv(ptr noundef nonnull align 8 dereferenceable(24) %0) #9 comdat align 2 {
  %2 = alloca ptr, align 8
  store ptr %0, ptr %2, align 8, !tbaa !216
  %3 = load ptr, ptr %2, align 8
  %4 = getelementptr inbounds nuw %"struct.std::_Vector_base.22", ptr %3, i32 0, i32 0
  %5 = getelementptr inbounds nuw %"struct.std::_Vector_base<cv::GShape, std::allocator<cv::GShape>>::_Vector_impl_data", ptr %4, i32 0, i32 1
  %6 = load ptr, ptr %5, align 8, !tbaa !718
  %7 = getelementptr inbounds nuw %"struct.std::_Vector_base.22", ptr %3, i32 0, i32 0
  %8 = getelementptr inbounds nuw %"struct.std::_Vector_base<cv::GShape, std::allocator<cv::GShape>>::_Vector_impl_data", ptr %7, i32 0, i32 0
  %9 = load ptr, ptr %8, align 8, !tbaa !716
  %10 = ptrtoint ptr %6 to i64
  %11 = ptrtoint ptr %9 to i64
  %12 = sub i64 %10, %11
  %13 = sdiv exact i64 %12, 4
  ret i64 %13
}

; Function Attrs: mustprogress uwtable
define linkonce_odr hidden noundef nonnull align 8 dereferenceable(8) ptr @_ZN2cv4gapi4s11nlsINS_6GShapeEEERNS1_8IOStreamES5_RKSt6vectorIT_SaIS7_EE(ptr noundef nonnull align 8 dereferenceable(8) %0, ptr noundef nonnull align 8 dereferenceable(24) %1) #4 comdat {
  %3 = alloca ptr, align 8
  %4 = alloca ptr, align 8
  %5 = alloca i32, align 4
  %6 = alloca ptr, align 8
  %7 = alloca %"class.__gnu_cxx::__normal_iterator.245", align 8
  %8 = alloca %"class.__gnu_cxx::__normal_iterator.245", align 8
  %9 = alloca ptr, align 8
  store ptr %0, ptr %3, align 8, !tbaa !3
  store ptr %1, ptr %4, align 8, !tbaa !216
  call void @llvm.lifetime.start.p0(i64 4, ptr %5) #3
  %10 = load ptr, ptr %4, align 8, !tbaa !216
  %11 = call noundef i64 @_ZNKSt6vectorIN2cv6GShapeESaIS1_EE4sizeEv(ptr noundef nonnull align 8 dereferenceable(24) %10) #3
  %12 = trunc i64 %11 to i32
  store i32 %12, ptr %5, align 4, !tbaa !67
  %13 = load ptr, ptr %3, align 8, !tbaa !3
  %14 = load i32, ptr %5, align 4, !tbaa !67
  %15 = load ptr, ptr %13, align 8, !tbaa !13
  %16 = getelementptr inbounds ptr, ptr %15, i64 8
  %17 = load ptr, ptr %16, align 8
  %18 = call noundef nonnull align 8 dereferenceable(8) ptr %17(ptr noundef nonnull align 8 dereferenceable(8) %13, i32 noundef %14)
  call void @llvm.lifetime.start.p0(i64 8, ptr %6) #3
  %19 = load ptr, ptr %4, align 8, !tbaa !216
  store ptr %19, ptr %6, align 8, !tbaa !216
  call void @llvm.lifetime.start.p0(i64 8, ptr %7) #3
  %20 = load ptr, ptr %6, align 8, !tbaa !216
  %21 = call ptr @_ZNKSt6vectorIN2cv6GShapeESaIS1_EE5beginEv(ptr noundef nonnull align 8 dereferenceable(24) %20) #3
  %22 = getelementptr inbounds nuw %"class.__gnu_cxx::__normal_iterator.245", ptr %7, i32 0, i32 0
  store ptr %21, ptr %22, align 8
  call void @llvm.lifetime.start.p0(i64 8, ptr %8) #3
  %23 = load ptr, ptr %6, align 8, !tbaa !216
  %24 = call ptr @_ZNKSt6vectorIN2cv6GShapeESaIS1_EE3endEv(ptr noundef nonnull align 8 dereferenceable(24) %23) #3
  %25 = getelementptr inbounds nuw %"class.__gnu_cxx::__normal_iterator.245", ptr %8, i32 0, i32 0
  store ptr %24, ptr %25, align 8
  br label %26

26:                                               ; preds = %35, %2
  %27 = call noundef zeroext i1 @_ZN9__gnu_cxxneIPKN2cv6GShapeESt6vectorIS2_SaIS2_EEEEbRKNS_17__normal_iteratorIT_T0_EESD_(ptr noundef nonnull align 8 dereferenceable(8) %7, ptr noundef nonnull align 8 dereferenceable(8) %8) #3
  br i1 %27, label %29, label %28

28:                                               ; preds = %26
  call void @llvm.lifetime.end.p0(i64 8, ptr %8) #3
  call void @llvm.lifetime.end.p0(i64 8, ptr %7) #3
  call void @llvm.lifetime.end.p0(i64 8, ptr %6) #3
  br label %37

29:                                               ; preds = %26
  call void @llvm.lifetime.start.p0(i64 8, ptr %9) #3
  %30 = call noundef nonnull align 4 dereferenceable(4) ptr @_ZNK9__gnu_cxx17__normal_iteratorIPKN2cv6GShapeESt6vectorIS2_SaIS2_EEEdeEv(ptr noundef nonnull align 8 dereferenceable(8) %7) #3
  store ptr %30, ptr %9, align 8, !tbaa !170
  %31 = load ptr, ptr %3, align 8, !tbaa !3
  %32 = load ptr, ptr %9, align 8, !tbaa !170
  %33 = load i32, ptr %32, align 4, !tbaa !180
  %34 = call noundef nonnull align 8 dereferenceable(8) ptr @_ZN2cv4gapi4s11nlsERNS1_8IOStreamENS_6GShapeE(ptr noundef nonnull align 8 dereferenceable(8) %31, i32 noundef %33)
  call void @llvm.lifetime.end.p0(i64 8, ptr %9) #3
  br label %35

35:                                               ; preds = %29
  %36 = call noundef nonnull align 8 dereferenceable(8) ptr @_ZN9__gnu_cxx17__normal_iteratorIPKN2cv6GShapeESt6vectorIS2_SaIS2_EEEppEv(ptr noundef nonnull align 8 dereferenceable(8) %7) #3
  br label %26

37:                                               ; preds = %28
  %38 = load ptr, ptr %3, align 8, !tbaa !3
  call void @llvm.lifetime.end.p0(i64 4, ptr %5) #3
  ret ptr %38
}

; Function Attrs: mustprogress uwtable
define noundef nonnull align 8 dereferenceable(8) ptr @_ZN2cv4gapi4s11nlsERNS1_8IOStreamERKNS_7GKernelE(ptr noundef nonnull align 8 dereferenceable(8) %0, ptr noundef nonnull align 8 dereferenceable(192) %1) #4 {
  %3 = alloca ptr, align 8
  %4 = alloca ptr, align 8
  store ptr %0, ptr %3, align 8, !tbaa !3
  store ptr %1, ptr %4, align 8, !tbaa !214
  %5 = load ptr, ptr %3, align 8, !tbaa !3
  %6 = load ptr, ptr %4, align 8, !tbaa !214
  %7 = getelementptr inbounds nuw %"struct.cv::GKernel", ptr %6, i32 0, i32 0
  %8 = load ptr, ptr %5, align 8, !tbaa !13
  %9 = getelementptr inbounds ptr, ptr %8, i64 12
  %10 = load ptr, ptr %9, align 8
  %11 = call noundef nonnull align 8 dereferenceable(8) ptr %10(ptr noundef nonnull align 8 dereferenceable(8) %5, ptr noundef nonnull align 8 dereferenceable(32) %7)
  %12 = load ptr, ptr %4, align 8, !tbaa !214
  %13 = getelementptr inbounds nuw %"struct.cv::GKernel", ptr %12, i32 0, i32 1
  %14 = load ptr, ptr %11, align 8, !tbaa !13
  %15 = getelementptr inbounds ptr, ptr %14, i64 12
  %16 = load ptr, ptr %15, align 8
  %17 = call noundef nonnull align 8 dereferenceable(8) ptr %16(ptr noundef nonnull align 8 dereferenceable(8) %11, ptr noundef nonnull align 8 dereferenceable(32) %13)
  %18 = load ptr, ptr %4, align 8, !tbaa !214
  %19 = getelementptr inbounds nuw %"struct.cv::GKernel", ptr %18, i32 0, i32 3
  %20 = call noundef nonnull align 8 dereferenceable(8) ptr @_ZN2cv4gapi4s11nlsINS_6GShapeEEERNS1_8IOStreamES5_RKSt6vectorIT_SaIS7_EE(ptr noundef nonnull align 8 dereferenceable(8) %17, ptr noundef nonnull align 8 dereferenceable(24) %19)
  ret ptr %20
}