; Function Attrs: mustprogress uwtable
define noundef nonnull align 8 dereferenceable(8) ptr @_ZN2cv4gapi4s11nlsERNS1_8IOStreamERKNS_7GKernelE(ptr noundef nonnull align 8 dereferenceable(8) %0, ptr noundef nonnull align 8 dereferenceable(192) %1) local_unnamed_addr #3 {
  %3 = load ptr, ptr %0, align 8, !tbaa !8
  %4 = getelementptr inbounds nuw i8, ptr %3, i64 96
  %5 = load ptr, ptr %4, align 8
  %6 = tail call noundef nonnull align 8 dereferenceable(8) ptr %5(ptr noundef nonnull align 8 dereferenceable(8) %0, ptr noundef nonnull align 8 dereferenceable(32) %1)
  %7 = getelementptr inbounds nuw i8, ptr %1, i64 32
  %8 = load ptr, ptr %6, align 8, !tbaa !8
  %9 = getelementptr inbounds nuw i8, ptr %8, i64 96
  %10 = load ptr, ptr %9, align 8
  %11 = tail call noundef nonnull align 8 dereferenceable(8) ptr %10(ptr noundef nonnull align 8 dereferenceable(8) %6, ptr noundef nonnull align 8 dereferenceable(32) %7)
  %12 = getelementptr inbounds nuw i8, ptr %1, i64 96
  %13 = getelementptr inbounds nuw i8, ptr %1, i64 104
  %14 = load ptr, ptr %13, align 8, !tbaa !279
  %15 = load ptr, ptr %12, align 8, !tbaa !281
  %16 = ptrtoint ptr %14 to i64
  %17 = ptrtoint ptr %15 to i64
  %18 = sub i64 %16, %17
  %19 = lshr exact i64 %18, 2
  %20 = trunc i64 %19 to i32
  %21 = load ptr, ptr %11, align 8, !tbaa !8
  %22 = getelementptr inbounds nuw i8, ptr %21, i64 64
  %23 = load ptr, ptr %22, align 8
  %24 = tail call noundef nonnull align 8 dereferenceable(8) ptr %23(ptr noundef nonnull align 8 dereferenceable(8) %11, i32 noundef %20)
  %25 = load ptr, ptr %12, align 8, !tbaa !261
  %26 = load ptr, ptr %13, align 8, !tbaa !261
  %.not11.i = icmp eq ptr %25, %26
  br i1 %.not11.i, label %_ZN2cv4gapi4s11nlsINS_6GShapeEEERNS1_8IOStreamES5_RKSt6vectorIT_SaIS7_EE.exit, label %.lr.ph.i

.lr.ph.i:                                         ; preds = %2, %.lr.ph.i
  %.sroa.08.012.i = phi ptr [ %32, %.lr.ph.i ], [ %25, %2 ]
  %27 = load i32, ptr %.sroa.08.012.i, align 4, !tbaa !238
  %28 = load ptr, ptr %11, align 8, !tbaa !8
  %29 = getelementptr inbounds nuw i8, ptr %28, i64 56
  %30 = load ptr, ptr %29, align 8
  %31 = tail call noundef nonnull align 8 dereferenceable(8) ptr %30(ptr noundef nonnull align 8 dereferenceable(8) %11, i32 noundef %27)
  %32 = getelementptr inbounds nuw i8, ptr %.sroa.08.012.i, i64 4
  %.not.i = icmp eq ptr %32, %26
  br i1 %.not.i, label %_ZN2cv4gapi4s11nlsINS_6GShapeEEERNS1_8IOStreamES5_RKSt6vectorIT_SaIS7_EE.exit, label %.lr.ph.i

_ZN2cv4gapi4s11nlsINS_6GShapeEEERNS1_8IOStreamES5_RKSt6vectorIT_SaIS7_EE.exit: ; preds = %.lr.ph.i, %2
  ret ptr %11
}